; Function Attrs: mustprogress uwtable
define void @_ZN3zmq13socket_base_t12add_signalerEPNS_10signaler_tE(ptr noundef nonnull align 8 dereferenceable(1825) %0, ptr noundef %1) local_unnamed_addr #0 align 2 personality ptr @__gxx_personality_v0 {
  %3 = alloca %"struct.zmq::scoped_lock_t", align 8
  %4 = getelementptr inbounds nuw i8, ptr %0, i64 1760
  %5 = load i8, ptr %4, align 8, !tbaa !96, !range !97, !noundef !98
  %6 = trunc nuw i8 %5 to i1
  br i1 %6, label %12, label %7, !prof !116

7:                                                ; preds = %2
  %8 = load ptr, ptr @stderr, align 8, !tbaa !100
  %9 = tail call i32 (ptr, ptr, ...) @fprintf(ptr noundef %8, ptr noundef nonnull @.str.3, ptr noundef nonnull @.str.10, ptr noundef nonnull @.str.1, i32 noundef 498) #42
  %10 = load ptr, ptr @stderr, align 8, !tbaa !100
  %11 = tail call i32 @fflush(ptr noundef %10)
  tail call void @_ZN3zmq9zmq_abortEPKc(ptr noundef nonnull @.str.10)
  br label %12

12:                                               ; preds = %2, %7
  call void @llvm.lifetime.start.p0(i64 8, ptr nonnull %3) #36
  %13 = getelementptr inbounds nuw i8, ptr %0, i64 1480
  store ptr %13, ptr %3, align 8, !tbaa !151
  %14 = tail call i32 @pthread_mutex_lock(ptr noundef nonnull align 8 dereferenceable(44) %13) #36
  %.not.i.i = icmp eq i32 %14, 0
  br i1 %.not.i.i, label %_ZN3zmq13scoped_lock_tC2ERNS_7mutex_tE.exit, label %15, !prof !116

15:                                               ; preds = %12
  %16 = tail call ptr @strerror(i32 noundef %14) #36
  %17 = load ptr, ptr @stderr, align 8, !tbaa !100
  %18 = tail call i32 (ptr, ptr, ...) @fprintf(ptr noundef %17, ptr noundef nonnull @.str.9, ptr noundef %16, ptr noundef nonnull @.str.23, i32 noundef 109) #42
  %19 = load ptr, ptr @stderr, align 8, !tbaa !100
  %20 = tail call i32 @fflush(ptr noundef %19)
  tail call void @_ZN3zmq9zmq_abortEPKc(ptr noundef %16)
  br label %_ZN3zmq13scoped_lock_tC2ERNS_7mutex_tE.exit

_ZN3zmq13scoped_lock_tC2ERNS_7mutex_tE.exit:      ; preds = %12, %15
  %21 = getelementptr inbounds nuw i8, ptr %0, i64 1632
  %22 = load ptr, ptr %21, align 8, !tbaa !99
  invoke void @_ZN3zmq14mailbox_safe_t12add_signalerEPNS_10signaler_tE(ptr noundef nonnull align 8 dereferenceable(200) %22, ptr noundef %1)
          to label %23 unwind label %34

23:                                               ; preds = %_ZN3zmq13scoped_lock_tC2ERNS_7mutex_tE.exit
  %24 = tail call i32 @pthread_mutex_unlock(ptr noundef nonnull align 8 dereferenceable(44) %13) #36
  %.not.i.i3 = icmp eq i32 %24, 0
  br i1 %.not.i.i3, label %_ZN3zmq13scoped_lock_tD2Ev.exit, label %25, !prof !116

25:                                               ; preds = %23
  %26 = tail call ptr @strerror(i32 noundef %24) #36
  %27 = load ptr, ptr @stderr, align 8, !tbaa !100
  %28 = tail call i32 (ptr, ptr, ...) @fprintf(ptr noundef %27, ptr noundef nonnull @.str.9, ptr noundef %26, ptr noundef nonnull @.str.23, i32 noundef 125) #42
  %29 = load ptr, ptr @stderr, align 8, !tbaa !100
  %30 = tail call i32 @fflush(ptr noundef %29)
  invoke void @_ZN3zmq9zmq_abortEPKc(ptr noundef %26)
          to label %_ZN3zmq13scoped_lock_tD2Ev.exit unwind label %31

31:                                               ; preds = %25
  %32 = landingpad { ptr, i32 }
          catch ptr null
  %33 = extractvalue { ptr, i32 } %32, 0
  tail call void @__clang_call_terminate(ptr %33) #43
  unreachable

_ZN3zmq13scoped_lock_tD2Ev.exit:                  ; preds = %23, %25
  call void @llvm.lifetime.end.p0(i64 8, ptr nonnull %3) #36
  ret void

34:                                               ; preds = %_ZN3zmq13scoped_lock_tC2ERNS_7mutex_tE.exit
  %35 = landingpad { ptr, i32 }
          cleanup
  call void @_ZN3zmq13scoped_lock_tD2Ev(ptr noundef nonnull align 8 dereferenceable(8) %3) #36
  call void @llvm.lifetime.end.p0(i64 8, ptr nonnull %3) #36
  resume { ptr, i32 } %35
}